target datalayout = "e-m:e-p270:32:32-p271:32:32-p272:64:64-i64:64-i128:128-f80:128-n8:16:32:64-S128"
target triple = "x86_64-pc-linux-gnu"

%struct.sockaddr_storage = type { i16, [118 x i8], i64 }
%struct.slurm_msg = type { %struct.sockaddr_storage, ptr, i32, i32, i32, i8, i32, i8, i32, ptr, ptr, i32, ptr, ptr, i16, i8, i16, i16, %struct.forward, ptr, %struct.sockaddr_storage, ptr }
%struct.forward = type { %struct.slurm_node_alias_addrs_t, i16, i16, ptr, i32, i16, i16 }
%struct.slurm_node_alias_addrs_t = type { i64, ptr, ptr, i32, ptr }
%struct.accounting_update_msg_t = type { ptr, i16 }

@plugin_type = external constant [0 x i8], align 1
@.str.14 = private unnamed_addr constant [87 x i8] c"%s: %s: First time to register cluster requesting running jobs and system information.\00", align 1
@__func__.cluster_first_reg = private unnamed_addr constant [18 x i8] c"cluster_first_reg\00", align 1
@.str.15 = private unnamed_addr constant [49 x i8] c"can not open socket back to slurmctld %s(%u): %m\00", align 1

; Function Attrs: nounwind uwtable
define dso_local i32 @cluster_first_reg(ptr noundef %0, i16 noundef zeroext %1, i16 noundef zeroext %2) #0 {
  %4 = alloca ptr, align 8
  %5 = alloca i16, align 2
  %6 = alloca i16, align 2
  %7 = alloca %struct.sockaddr_storage, align 8
  %8 = alloca i32, align 4
  %9 = alloca i32, align 4
  %10 = alloca %struct.slurm_msg, align 8
  %11 = alloca %struct.accounting_update_msg_t, align 8
  store ptr %0, ptr %4, align 8
  store i16 %1, ptr %5, align 2
  store i16 %2, ptr %6, align 2
  call void @llvm.lifetime.start.p0(i64 128, ptr %7) #8
  call void @llvm.lifetime.start.p0(i64 4, ptr %8) #8
  call void @llvm.lifetime.start.p0(i64 4, ptr %9) #8
  store i32 0, ptr %9, align 4
  br label %12

12:                                               ; preds = %3
  br label %13

13:                                               ; preds = %12
  %14 = call i32 @slurm_get_log_level()
  %15 = icmp sge i32 %14, 3
  br i1 %15, label %16, label %17

16:                                               ; preds = %13
  call void (i32, ptr, ...) @slurm_log_var(i32 noundef 3, ptr noundef @.str.14, ptr noundef @plugin_type, ptr noundef @__func__.cluster_first_reg)
  br label %17

17:                                               ; preds = %16, %13
  br label %18

18:                                               ; preds = %17
  br label %19

19:                                               ; preds = %18
  br label %20

20:                                               ; preds = %19
  br label %21

21:                                               ; preds = %20
  call void @llvm.memset.p0.i64(ptr align 8 %7, i8 0, i64 128, i1 false)
  %22 = load i16, ptr %5, align 2
  %23 = load ptr, ptr %4, align 8
  call void @slurm_set_addr(ptr noundef %7, i16 noundef zeroext %22, ptr noundef %23)
  %24 = call i32 @slurm_open_msg_conn(ptr noundef %7)
  store i32 %24, ptr %8, align 4
  %25 = load i32, ptr %8, align 4
  %26 = icmp slt i32 %25, 0
  br i1 %26, label %27, label %32

27:                                               ; preds = %21
  %28 = load ptr, ptr %4, align 8
  %29 = load i16, ptr %5, align 2
  %30 = zext i16 %29 to i32
  %31 = call i32 (ptr, ...) @slurm_error(ptr noundef @.str.15, ptr noundef %28, i32 noundef %30)
  store i32 -1, ptr %9, align 4
  br label %42

32:                                               ; preds = %21
  call void @llvm.lifetime.start.p0(i64 424, ptr %10) #8
  call void @llvm.lifetime.start.p0(i64 16, ptr %11) #8
  call void @llvm.memset.p0.i64(ptr align 8 %11, i8 0, i64 16, i1 false)
  %33 = load i16, ptr %6, align 2
  %34 = getelementptr inbounds nuw %struct.accounting_update_msg_t, ptr %11, i32 0, i32 1
  store i16 %33, ptr %34, align 8
  call void @slurm_msg_t_init(ptr noundef %10)
  %35 = getelementptr inbounds nuw %struct.slurm_msg, ptr %10, i32 0, i32 16
  store i16 10002, ptr %35, align 4
  %36 = getelementptr inbounds nuw %struct.slurm_msg, ptr %10, i32 0, i32 14
  store i16 1, ptr %36, align 8
  %37 = getelementptr inbounds nuw %struct.slurm_msg, ptr %10, i32 0, i32 13
  store ptr %11, ptr %37, align 8
  call void @slurm_msg_set_r_uid(ptr noundef %10, i32 noundef -1)
  %38 = load i32, ptr %8, align 4
  %39 = call i32 @slurm_send_node_msg(i32 noundef %38, ptr noundef %10)
  %40 = load i32, ptr %8, align 4
  %41 = call i32 @close(i32 noundef %40)
  call void @llvm.lifetime.end.p0(i64 16, ptr %11) #8
  call void @llvm.lifetime.end.p0(i64 424, ptr %10) #8
  br label %42

42:                                               ; preds = %32, %27
  %43 = load i32, ptr %9, align 4
  call void @llvm.lifetime.end.p0(i64 4, ptr %9) #8
  call void @llvm.lifetime.end.p0(i64 4, ptr %8) #8
  call void @llvm.lifetime.end.p0(i64 128, ptr %7) #8
  ret i32 %43
}