; Function Attrs: nounwind uwtable
define dso_local range(i32 -1, 1) i32 @cluster_first_reg(ptr noundef %0, i16 noundef zeroext %1, i16 noundef zeroext %2) local_unnamed_addr #0 {
  %4 = alloca %struct.sockaddr_storage, align 8
  %5 = alloca %struct.slurm_msg, align 8
  %6 = alloca %struct.accounting_update_msg_t, align 8
  call void @llvm.lifetime.start.p0(i64 128, ptr nonnull %4) #12
  %7 = tail call i32 @slurm_get_log_level() #12
  %8 = icmp sgt i32 %7, 2
  br i1 %8, label %9, label %10

9:                                                ; preds = %3
  tail call void (i32, ptr, ...) @slurm_log_var(i32 noundef 3, ptr noundef nonnull @.str.14, ptr noundef nonnull @plugin_type, ptr noundef nonnull @__func__.cluster_first_reg) #12
  br label %10

10:                                               ; preds = %9, %3
  call void @llvm.memset.p0.i64(ptr noundef nonnull align 8 dereferenceable(128) %4, i8 0, i64 128, i1 false)
  call void @slurm_set_addr(ptr noundef nonnull %4, i16 noundef zeroext %1, ptr noundef %0) #12
  %11 = call i32 @slurm_open_msg_conn(ptr noundef nonnull %4) #12
  %12 = icmp slt i32 %11, 0
  br i1 %12, label %13, label %16

13:                                               ; preds = %10
  %14 = zext i16 %1 to i32
  %15 = call i32 (ptr, ...) @slurm_error(ptr noundef nonnull @.str.15, ptr noundef %0, i32 noundef %14) #12
  br label %23

16:                                               ; preds = %10
  call void @llvm.lifetime.start.p0(i64 424, ptr nonnull %5) #12
  call void @llvm.lifetime.start.p0(i64 16, ptr nonnull %6) #12
  call void @llvm.memset.p0.i64(ptr noundef nonnull align 8 dereferenceable(16) %6, i8 0, i64 16, i1 false)
  %17 = getelementptr inbounds nuw i8, ptr %6, i64 8
  store i16 %2, ptr %17, align 8
  call void @slurm_msg_t_init(ptr noundef nonnull %5) #12
  %18 = getelementptr inbounds nuw i8, ptr %5, i64 212
  store i16 10002, ptr %18, align 4
  %19 = getelementptr inbounds nuw i8, ptr %5, i64 208
  store i16 1, ptr %19, align 8
  %20 = getelementptr inbounds nuw i8, ptr %5, i64 200
  store ptr %6, ptr %20, align 8
  call void @slurm_msg_set_r_uid(ptr noundef nonnull %5, i32 noundef -1) #12
  %21 = call i32 @slurm_send_node_msg(i32 noundef %11, ptr noundef nonnull %5) #12
  %22 = call i32 @close(i32 noundef %11) #12
  call void @llvm.lifetime.end.p0(i64 16, ptr nonnull %6) #12
  call void @llvm.lifetime.end.p0(i64 424, ptr nonnull %5) #12
  br label %23

23:                                               ; preds = %16, %13
  %.0 = phi i32 [ -1, %13 ], [ 0, %16 ]
  call void @llvm.lifetime.end.p0(i64 128, ptr nonnull %4) #12
  ret i32 %.0
}